target datalayout = "e-m:e-p270:32:32-p271:32:32-p272:64:64-i64:64-i128:128-f80:128-n8:16:32:64-S128"
target triple = "x86_64-pc-linux-gnu"

%struct._zend_array = type { %struct._zend_refcounted_h, %union.anon.0, i32, %union.anon.1, i32, i32, i32, i32, i64, ptr }
%struct._zend_refcounted_h = type { i32, %union.anon }
%union.anon = type { i32 }
%union.anon.0 = type { i32 }
%union.anon.1 = type { ptr }

@le_stream = internal global i32 -1, align 4
@le_pstream = internal global i32 -1, align 4
@le_stream_filter = internal global i32 -1, align 4
@url_stream_wrappers_hash = internal global %struct._zend_array zeroinitializer, align 8
@.str.3 = private unnamed_addr constant [7 x i8] c"stream\00", align 1
@.str.4 = private unnamed_addr constant [18 x i8] c"persistent stream\00", align 1
@.str.5 = private unnamed_addr constant [14 x i8] c"stream filter\00", align 1
@.str.6 = private unnamed_addr constant [4 x i8] c"tcp\00", align 1
@.str.7 = private unnamed_addr constant [4 x i8] c"udp\00", align 1
@.str.8 = private unnamed_addr constant [5 x i8] c"unix\00", align 1
@.str.9 = private unnamed_addr constant [4 x i8] c"udg\00", align 1

; Function Attrs: nounwind uwtable
define hidden i32 @php_init_stream_wrappers(i32 noundef %0) #0 {
  %2 = alloca i32, align 4
  store i32 %0, ptr %2, align 4
  %3 = load i32, ptr %2, align 4
  %4 = call i32 @zend_register_list_destructors_ex(ptr noundef @stream_resource_regular_dtor, ptr noundef null, ptr noundef @.str.3, i32 noundef %3)
  store i32 %4, ptr @le_stream, align 4
  %5 = load i32, ptr %2, align 4
  %6 = call i32 @zend_register_list_destructors_ex(ptr noundef null, ptr noundef @stream_resource_persistent_dtor, ptr noundef @.str.4, i32 noundef %5)
  store i32 %6, ptr @le_pstream, align 4
  %7 = load i32, ptr %2, align 4
  %8 = call i32 @zend_register_list_destructors_ex(ptr noundef null, ptr noundef null, ptr noundef @.str.5, i32 noundef %7)
  store i32 %8, ptr @le_stream_filter, align 4
  call void @_zend_hash_init(ptr noundef @url_stream_wrappers_hash, i32 noundef 8, ptr noundef null, i1 noundef zeroext true)
  %9 = call ptr @php_get_stream_filters_hash_global()
  call void @_zend_hash_init(ptr noundef %9, i32 noundef 8, ptr noundef null, i1 noundef zeroext true)
  %10 = call ptr @php_stream_xport_get_hash()
  call void @_zend_hash_init(ptr noundef %10, i32 noundef 8, ptr noundef null, i1 noundef zeroext true)
  %11 = call i32 @php_stream_xport_register(ptr noundef @.str.6, ptr noundef @php_stream_generic_socket_factory)
  %12 = icmp eq i32 %11, 0
  br i1 %12, label %13, label %22

13:                                               ; preds = %1
  %14 = call i32 @php_stream_xport_register(ptr noundef @.str.7, ptr noundef @php_stream_generic_socket_factory)
  %15 = icmp eq i32 %14, 0
  br i1 %15, label %16, label %22

16:                                               ; preds = %13
  %17 = call i32 @php_stream_xport_register(ptr noundef @.str.8, ptr noundef @php_stream_generic_socket_factory)
  %18 = icmp eq i32 %17, 0
  br i1 %18, label %19, label %22

19:                                               ; preds = %16
  %20 = call i32 @php_stream_xport_register(ptr noundef @.str.9, ptr noundef @php_stream_generic_socket_factory)
  %21 = icmp eq i32 %20, 0
  br label %22

22:                                               ; preds = %19, %16, %13, %1
  %23 = phi i1 [ false, %16 ], [ false, %13 ], [ false, %1 ], [ %21, %19 ]
  %24 = select i1 %23, i32 0, i32 -1
  ret i32 %24
}