; Function Attrs: nounwind uwtable
define hidden i32 @php_init_stream_wrappers(i32 noundef %0) local_unnamed_addr #2 {
  %2 = tail call i32 @zend_register_list_destructors_ex(ptr noundef nonnull @stream_resource_regular_dtor, ptr noundef null, ptr noundef nonnull @.str.3, i32 noundef %0) #27
  store i32 %2, ptr @le_stream, align 4
  %3 = tail call i32 @zend_register_list_destructors_ex(ptr noundef null, ptr noundef nonnull @stream_resource_persistent_dtor, ptr noundef nonnull @.str.4, i32 noundef %0) #27
  store i32 %3, ptr @le_pstream, align 4
  %4 = tail call i32 @zend_register_list_destructors_ex(ptr noundef null, ptr noundef null, ptr noundef nonnull @.str.5, i32 noundef %0) #27
  store i32 %4, ptr @le_stream_filter, align 4
  tail call void @_zend_hash_init(ptr noundef nonnull @url_stream_wrappers_hash, i32 noundef 8, ptr noundef null, i1 noundef zeroext true) #27
  %5 = tail call ptr @php_get_stream_filters_hash_global() #27
  tail call void @_zend_hash_init(ptr noundef %5, i32 noundef 8, ptr noundef null, i1 noundef zeroext true) #27
  %6 = tail call ptr @php_stream_xport_get_hash() #27
  tail call void @_zend_hash_init(ptr noundef %6, i32 noundef 8, ptr noundef null, i1 noundef zeroext true) #27
  %7 = tail call i32 @php_stream_xport_register(ptr noundef nonnull @.str.6, ptr noundef nonnull @php_stream_generic_socket_factory) #27
  %8 = icmp eq i32 %7, 0
  br i1 %8, label %9, label %19

9:                                                ; preds = %1
  %10 = tail call i32 @php_stream_xport_register(ptr noundef nonnull @.str.7, ptr noundef nonnull @php_stream_generic_socket_factory) #27
  %11 = icmp eq i32 %10, 0
  br i1 %11, label %12, label %19

12:                                               ; preds = %9
  %13 = tail call i32 @php_stream_xport_register(ptr noundef nonnull @.str.8, ptr noundef nonnull @php_stream_generic_socket_factory) #27
  %14 = icmp eq i32 %13, 0
  br i1 %14, label %15, label %19

15:                                               ; preds = %12
  %16 = tail call i32 @php_stream_xport_register(ptr noundef nonnull @.str.9, ptr noundef nonnull @php_stream_generic_socket_factory) #27
  %17 = icmp ne i32 %16, 0
  %18 = sext i1 %17 to i32
  br label %19

19:                                               ; preds = %15, %12, %9, %1
  %not. = phi i32 [ -1, %12 ], [ -1, %9 ], [ -1, %1 ], [ %18, %15 ]
  ret i32 %not.
}